target datalayout = "e-m:e-p270:32:32-p271:32:32-p272:64:64-i64:64-i128:128-f80:128-n8:16:32:64-S128"
target triple = "x86_64-pc-linux-gnu"

%struct._zend_libxml_globals = type { %struct._zval_struct, %struct.smart_str, ptr, %struct._zend_fcall_info_cache, i8 }
%struct._zval_struct = type { %union._zend_value, %union.anon, %union.anon.2 }
%union._zend_value = type { i64 }
%union.anon = type { i32 }
%union.anon.2 = type { i32 }
%struct.smart_str = type { ptr, i64 }
%struct._zend_fcall_info_cache = type { ptr, ptr, ptr, ptr, ptr }

@empty_fcall_info_cache = external constant %struct._zend_fcall_info_cache, align 8

; Function Attrs: nounwind uwtable
define internal void @zm_globals_ctor_libxml(ptr noundef %0) #0 {
  %2 = alloca ptr, align 8
  store ptr %0, ptr %2, align 8
  br label %3

3:                                                ; preds = %1
  %4 = load ptr, ptr %2, align 8
  %5 = getelementptr inbounds %struct._zend_libxml_globals, ptr %4, i32 0, i32 0
  %6 = getelementptr inbounds %struct._zval_struct, ptr %5, i32 0, i32 1
  store i32 0, ptr %6, align 8
  br label %7

7:                                                ; preds = %3
  %8 = load ptr, ptr %2, align 8
  %9 = getelementptr inbounds %struct._zend_libxml_globals, ptr %8, i32 0, i32 1
  %10 = getelementptr inbounds %struct.smart_str, ptr %9, i32 0, i32 0
  store ptr null, ptr %10, align 8
  %11 = load ptr, ptr %2, align 8
  %12 = getelementptr inbounds %struct._zend_libxml_globals, ptr %11, i32 0, i32 2
  store ptr null, ptr %12, align 8
  %13 = load ptr, ptr %2, align 8
  %14 = getelementptr inbounds %struct._zend_libxml_globals, ptr %13, i32 0, i32 3
  call void @llvm.memcpy.p0.p0.i64(ptr align 8 %14, ptr align 8 @empty_fcall_info_cache, i64 40, i1 false)
  ret void
}